; Function Attrs: mustprogress uwtable
define noundef nonnull align 8 dereferenceable(64) ptr @_ZNK6icu_7521RuleCharacterIterator9lookaheadERNS_13UnicodeStringEi(ptr nocapture noundef nonnull readonly align 8 dereferenceable(36) %this, ptr noundef nonnull returned align 8 dereferenceable(64) %result, i32 noundef %maxLookAhead) local_unnamed_addr #2 align 2 {
entry:
  %spec.store.select = tail call i32 @llvm.umin.i32(i32 %maxLookAhead, i32 2147483647)
  %buf = getelementptr inbounds i8, ptr %this, i64 24
  %0 = load ptr, ptr %buf, align 8
  %cmp2.not = icmp eq ptr %0, null
  br i1 %cmp2.not, label %if.else, label %if.then3

if.then3:                                         ; preds = %entry
  %bufPos = getelementptr inbounds i8, ptr %this, i64 32
  %1 = load i32, ptr %bufPos, align 8
  %fUnion.i.i.i.i = getelementptr inbounds i8, ptr %result, i64 8
  %2 = load i16, ptr %fUnion.i.i.i.i, align 8
  %cmp.i.i.i.i = icmp slt i16 %2, 0
  %3 = ashr i16 %2, 5
  %shr.i.i.i.i = sext i16 %3 to i32
  %fLength.i.i.i = getelementptr inbounds i8, ptr %result, i64 12
  %4 = load i32, ptr %fLength.i.i.i, align 4
  %cond.i.i.i = select i1 %cmp.i.i.i.i, i32 %4, i32 %shr.i.i.i.i
  %call.i.i.i = tail call noundef nonnull align 8 dereferenceable(64) ptr @_ZN6icu_7513UnicodeString9doReplaceEiiRKS0_ii(ptr noundef nonnull align 8 dereferenceable(64) %result, i32 noundef 0, i32 noundef %cond.i.i.i, ptr noundef nonnull align 8 dereferenceable(64) %0, i32 noundef %1, i32 noundef %spec.store.select)
  br label %if.end5

if.else:                                          ; preds = %entry
  %5 = load ptr, ptr %this, align 8
  %pos = getelementptr inbounds i8, ptr %this, i64 8
  %6 = load ptr, ptr %pos, align 8
  %index.i = getelementptr inbounds i8, ptr %6, i64 8
  %7 = load i32, ptr %index.i, align 8
  %fUnion.i.i.i.i5 = getelementptr inbounds i8, ptr %result, i64 8
  %8 = load i16, ptr %fUnion.i.i.i.i5, align 8
  %cmp.i.i.i.i6 = icmp slt i16 %8, 0
  %9 = ashr i16 %8, 5
  %shr.i.i.i.i7 = sext i16 %9 to i32
  %fLength.i.i.i8 = getelementptr inbounds i8, ptr %result, i64 12
  %10 = load i32, ptr %fLength.i.i.i8, align 4
  %cond.i.i.i9 = select i1 %cmp.i.i.i.i6, i32 %10, i32 %shr.i.i.i.i7
  %call.i.i.i10 = tail call noundef nonnull align 8 dereferenceable(64) ptr @_ZN6icu_7513UnicodeString9doReplaceEiiRKS0_ii(ptr noundef nonnull align 8 dereferenceable(64) %result, i32 noundef 0, i32 noundef %cond.i.i.i9, ptr noundef nonnull align 8 dereferenceable(64) %5, i32 noundef %7, i32 noundef %spec.store.select)
  br label %if.end5

if.end5:                                          ; preds = %if.else, %if.then3
  ret ptr %result
}